; Function Attrs: nounwind uwtable
define void @Java_java_awt_image_SinglePixelPackedSampleModel_initIDs(ptr noundef %0, ptr noundef %1) local_unnamed_addr #0 {
  %3 = load ptr, ptr %0, align 8
  %4 = getelementptr inbounds i8, ptr %3, i64 752
  %5 = load ptr, ptr %4, align 8
  %6 = tail call ptr %5(ptr noundef nonnull %0, ptr noundef %1, ptr noundef nonnull @.str.32, ptr noundef nonnull @.str.27) #1
  store ptr %6, ptr @g_SPPSMmaskArrID, align 8
  %7 = icmp eq ptr %6, null
  br i1 %7, label %25, label %8

8:                                                ; preds = %2
  %9 = load ptr, ptr %0, align 8
  %10 = getelementptr inbounds i8, ptr %9, i64 752
  %11 = load ptr, ptr %10, align 8
  %12 = tail call ptr %11(ptr noundef nonnull %0, ptr noundef %1, ptr noundef nonnull @.str.33, ptr noundef nonnull @.str.27) #1
  store ptr %12, ptr @g_SPPSMmaskOffID, align 8
  %13 = icmp eq ptr %12, null
  br i1 %13, label %25, label %14

14:                                               ; preds = %8
  %15 = load ptr, ptr %0, align 8
  %16 = getelementptr inbounds i8, ptr %15, i64 752
  %17 = load ptr, ptr %16, align 8
  %18 = tail call ptr %17(ptr noundef nonnull %0, ptr noundef %1, ptr noundef nonnull @.str.34, ptr noundef nonnull @.str.27) #1
  store ptr %18, ptr @g_SPPSMnBitsID, align 8
  %19 = icmp eq ptr %18, null
  br i1 %19, label %25, label %20

20:                                               ; preds = %14
  %21 = load ptr, ptr %0, align 8
  %22 = getelementptr inbounds i8, ptr %21, i64 752
  %23 = load ptr, ptr %22, align 8
  %24 = tail call ptr %23(ptr noundef nonnull %0, ptr noundef %1, ptr noundef nonnull @.str.35, ptr noundef nonnull @.str.3) #1
  store ptr %24, ptr @g_SPPSMmaxBitID, align 8
  br label %25

25:                                               ; preds = %20, %14, %8, %2
  ret void
}